target datalayout = "e-m:e-p270:32:32-p271:32:32-p272:64:64-i64:64-i128:128-f80:128-n8:16:32:64-S128"
target triple = "x86_64-pc-linux-gnu"

%struct.bignum_st = type { ptr, i32, i32, i32, i32 }

; Function Attrs: nounwind uwtable
define hidden i64 @BN_get_word(ptr noundef %0) #0 {
  %2 = alloca i64, align 8
  %3 = alloca ptr, align 8
  store ptr %0, ptr %3, align 8, !tbaa !13
  %4 = load ptr, ptr %3, align 8, !tbaa !13
  %5 = getelementptr inbounds nuw %struct.bignum_st, ptr %4, i32 0, i32 1
  %6 = load i32, ptr %5, align 8, !tbaa !15
  switch i32 %6, label %14 [
    i32 0, label %7
    i32 1, label %8
  ]

7:                                                ; preds = %1
  store i64 0, ptr %2, align 8
  br label %15

8:                                                ; preds = %1
  %9 = load ptr, ptr %3, align 8, !tbaa !13
  %10 = getelementptr inbounds nuw %struct.bignum_st, ptr %9, i32 0, i32 0
  %11 = load ptr, ptr %10, align 8, !tbaa !22
  %12 = getelementptr inbounds i64, ptr %11, i64 0
  %13 = load i64, ptr %12, align 8, !tbaa !11
  store i64 %13, ptr %2, align 8
  br label %15

14:                                               ; preds = %1
  store i64 -1, ptr %2, align 8
  br label %15

15:                                               ; preds = %14, %8, %7
  %16 = load i64, ptr %2, align 8
  ret i64 %16
}