; Function Attrs: mustprogress nofree norecurse nosync nounwind willreturn memory(read, inaccessiblemem: none) uwtable
define hidden i64 @BN_get_word(ptr noundef readonly captures(none) %0) local_unnamed_addr #7 {
  %2 = getelementptr inbounds nuw i8, ptr %0, i64 8
  %3 = load i32, ptr %2, align 8, !tbaa !6
  switch i32 %3, label %7 [
    i32 0, label %8
    i32 1, label %4
  ]

4:                                                ; preds = %1
  %5 = load ptr, ptr %0, align 8, !tbaa !15
  %6 = load i64, ptr %5, align 8, !tbaa !16
  br label %8

7:                                                ; preds = %1
  br label %8

8:                                                ; preds = %1, %7, %4
  %.0 = phi i64 [ -1, %7 ], [ %6, %4 ], [ 0, %1 ]
  ret i64 %.0
}